; Function Attrs: mustprogress uwtable
define hidden void @_ZN4cvc58internal6theory11quantifiers9InstMatch8resetAllEv(ptr nocapture noundef nonnull readonly align 8 dereferenceable(72) %this) local_unnamed_addr #3 align 2 personality ptr @__gxx_personality_v0 {
entry:
  %ref.tmp = alloca %"class.cvc5::internal::NodeTemplate.0", align 8
  %d_vals = getelementptr inbounds i8, ptr %this, i64 32
  %_M_finish.i = getelementptr inbounds i8, ptr %this, i64 40
  %0 = load ptr, ptr %_M_finish.i, align 8
  %1 = load ptr, ptr %d_vals, align 8
  %cmp13.not = icmp eq ptr %0, %1
  br i1 %cmp13.not, label %for.end, label %for.body.preheader

for.body.preheader:                               ; preds = %entry
  %sub.ptr.lhs.cast.i = ptrtoint ptr %0 to i64
  %sub.ptr.rhs.cast.i = ptrtoint ptr %1 to i64
  %sub.ptr.sub.i = sub i64 %sub.ptr.lhs.cast.i, %sub.ptr.rhs.cast.i
  %sub.ptr.div.i = ashr exact i64 %sub.ptr.sub.i, 3
  %umax = tail call i64 @llvm.umax.i64(i64 %sub.ptr.div.i, i64 1)
  br label %for.body

for.body:                                         ; preds = %for.body.preheader, %_ZN4cvc58internal12NodeTemplateILb1EED2Ev.exit
  %i.014 = phi i64 [ %inc, %_ZN4cvc58internal12NodeTemplateILb1EED2Ev.exit ], [ 0, %for.body.preheader ]
  tail call void @llvm.experimental.noalias.scope.decl(metadata !12)
  %2 = load ptr, ptr @_ZN4cvc58internal12NodeTemplateILb1EE6s_nullE, align 8, !noalias !12
  store ptr %2, ptr %ref.tmp, align 8, !alias.scope !12
  %bf.load.i.i.i = load i64, ptr %2, align 8, !noalias !12
  %bf.lshr.i.i.i = lshr i64 %bf.load.i.i.i, 40
  %3 = trunc i64 %bf.lshr.i.i.i to i32
  %bf.cast.i.i.i = and i32 %3, 1048575
  %cmp.i.i.i = icmp ult i32 %bf.cast.i.i.i, 1048574
  br i1 %cmp.i.i.i, label %if.then.i.i.i, label %if.else.i.i.i

if.then.i.i.i:                                    ; preds = %for.body
  %bf.value.i.i.i = add i64 %bf.load.i.i.i, 1099511627776
  %bf.shl.i.i.i = and i64 %bf.value.i.i.i, 1152920405095219200
  %bf.clear7.i.i.i = and i64 %bf.load.i.i.i, -1152920405095219201
  %bf.set.i.i.i = or disjoint i64 %bf.shl.i.i.i, %bf.clear7.i.i.i
  store i64 %bf.set.i.i.i, ptr %2, align 8, !noalias !12
  br label %_ZN4cvc58internal12NodeTemplateILb1EE4nullEv.exit

if.else.i.i.i:                                    ; preds = %for.body
  %cmp12.i.i.i = icmp eq i32 %bf.cast.i.i.i, 1048574
  br i1 %cmp12.i.i.i, label %if.then13.i.i.i, label %_ZN4cvc58internal12NodeTemplateILb1EE4nullEv.exit

if.then13.i.i.i:                                  ; preds = %if.else.i.i.i
  %bf.set23.i.i.i = or i64 %bf.load.i.i.i, 1152920405095219200
  store i64 %bf.set23.i.i.i, ptr %2, align 8, !noalias !12
  tail call void @_ZN4cvc58internal4expr9NodeValue20markRefCountMaxedOutEv(ptr noundef nonnull align 8 dereferenceable(16) %2), !noalias !12
  br label %_ZN4cvc58internal12NodeTemplateILb1EE4nullEv.exit

_ZN4cvc58internal12NodeTemplateILb1EE4nullEv.exit: ; preds = %if.then.i.i.i, %if.else.i.i.i, %if.then13.i.i.i
  %4 = load ptr, ptr %d_vals, align 8
  %add.ptr.i = getelementptr inbounds %"class.cvc5::internal::NodeTemplate.0", ptr %4, i64 %i.014
  %5 = load ptr, ptr %add.ptr.i, align 8
  %cmp.not.i = icmp eq ptr %5, %2
  br i1 %cmp.not.i, label %invoke.cont, label %if.then.i

if.then.i:                                        ; preds = %_ZN4cvc58internal12NodeTemplateILb1EE4nullEv.exit
  %bf.load.i.i = load i64, ptr %5, align 8
  %6 = and i64 %bf.load.i.i, 1152920405095219200
  %cmp.not.i.i = icmp eq i64 %6, 1152920405095219200
  br i1 %cmp.not.i.i, label %_ZN4cvc58internal4expr9NodeValue3decEv.exit.i, label %if.then.i.i

if.then.i.i:                                      ; preds = %if.then.i
  %bf.value.i.i = add i64 %bf.load.i.i, 1152920405095219200
  %bf.shl.i.i = and i64 %bf.value.i.i, 1152920405095219200
  %bf.clear7.i.i = and i64 %bf.load.i.i, -1152920405095219201
  %bf.set.i.i = or disjoint i64 %bf.shl.i.i, %bf.clear7.i.i
  store i64 %bf.set.i.i, ptr %5, align 8
  %cmp12.i.i = icmp eq i64 %bf.shl.i.i, 0
  br i1 %cmp12.i.i, label %if.then13.i.i, label %_ZN4cvc58internal4expr9NodeValue3decEv.exit.i

if.then13.i.i:                                    ; preds = %if.then.i.i
  invoke void @_ZN4cvc58internal4expr9NodeValue15markForDeletionEv(ptr noundef nonnull align 8 dereferenceable(16) %5)
          to label %_ZN4cvc58internal4expr9NodeValue3decEv.exit.i unwind label %lpad

_ZN4cvc58internal4expr9NodeValue3decEv.exit.i:    ; preds = %if.then13.i.i, %if.then.i.i, %if.then.i
  store ptr %2, ptr %add.ptr.i, align 8
  %bf.load.i2.i = load i64, ptr %2, align 8
  %bf.lshr.i.i = lshr i64 %bf.load.i2.i, 40
  %7 = trunc i64 %bf.lshr.i.i to i32
  %bf.cast.i.i = and i32 %7, 1048575
  %cmp.i.i = icmp ult i32 %bf.cast.i.i, 1048574
  br i1 %cmp.i.i, label %if.then.i5.i, label %if.else.i.i

if.then.i5.i:                                     ; preds = %_ZN4cvc58internal4expr9NodeValue3decEv.exit.i
  %bf.value.i6.i = add i64 %bf.load.i2.i, 1099511627776
  %bf.shl.i7.i = and i64 %bf.value.i6.i, 1152920405095219200
  %bf.clear7.i8.i = and i64 %bf.load.i2.i, -1152920405095219201
  %bf.set.i9.i = or disjoint i64 %bf.shl.i7.i, %bf.clear7.i8.i
  store i64 %bf.set.i9.i, ptr %2, align 8
  br label %invoke.cont

if.else.i.i:                                      ; preds = %_ZN4cvc58internal4expr9NodeValue3decEv.exit.i
  %cmp12.i3.i = icmp eq i32 %bf.cast.i.i, 1048574
  br i1 %cmp12.i3.i, label %if.then13.i4.i, label %invoke.cont

if.then13.i4.i:                                   ; preds = %if.else.i.i
  %bf.set23.i.i = or i64 %bf.load.i2.i, 1152920405095219200
  store i64 %bf.set23.i.i, ptr %2, align 8
  invoke void @_ZN4cvc58internal4expr9NodeValue20markRefCountMaxedOutEv(ptr noundef nonnull align 8 dereferenceable(16) %2)
          to label %invoke.cont unwind label %lpad

invoke.cont:                                      ; preds = %if.else.i.i, %if.then.i5.i, %_ZN4cvc58internal12NodeTemplateILb1EE4nullEv.exit, %if.then13.i4.i
  %bf.load.i.i4 = load i64, ptr %2, align 8
  %8 = and i64 %bf.load.i.i4, 1152920405095219200
  %cmp.not.i.i5 = icmp eq i64 %8, 1152920405095219200
  br i1 %cmp.not.i.i5, label %_ZN4cvc58internal12NodeTemplateILb1EED2Ev.exit, label %if.then.i.i6

if.then.i.i6:                                     ; preds = %invoke.cont
  %bf.value.i.i7 = add i64 %bf.load.i.i4, 1152920405095219200
  %bf.shl.i.i8 = and i64 %bf.value.i.i7, 1152920405095219200
  %bf.clear7.i.i9 = and i64 %bf.load.i.i4, -1152920405095219201
  %bf.set.i.i10 = or disjoint i64 %bf.shl.i.i8, %bf.clear7.i.i9
  store i64 %bf.set.i.i10, ptr %2, align 8
  %cmp12.i.i11 = icmp eq i64 %bf.shl.i.i8, 0
  br i1 %cmp12.i.i11, label %if.then13.i.i12, label %_ZN4cvc58internal12NodeTemplateILb1EED2Ev.exit

if.then13.i.i12:                                  ; preds = %if.then.i.i6
  invoke void @_ZN4cvc58internal4expr9NodeValue15markForDeletionEv(ptr noundef nonnull align 8 dereferenceable(16) %2)
          to label %_ZN4cvc58internal12NodeTemplateILb1EED2Ev.exit unwind label %terminate.lpad.i

terminate.lpad.i:                                 ; preds = %if.then13.i.i12
  %9 = landingpad { ptr, i32 }
          catch ptr null
  %10 = extractvalue { ptr, i32 } %9, 0
  tail call void @__clang_call_terminate(ptr %10) #15
  unreachable

_ZN4cvc58internal12NodeTemplateILb1EED2Ev.exit:   ; preds = %invoke.cont, %if.then.i.i6, %if.then13.i.i12
  %inc = add nuw i64 %i.014, 1
  %exitcond.not = icmp eq i64 %inc, %umax
  br i1 %exitcond.not, label %for.end, label %for.body, !llvm.loop !15

lpad:                                             ; preds = %if.then13.i4.i, %if.then13.i.i
  %11 = landingpad { ptr, i32 }
          cleanup
  call void @_ZN4cvc58internal12NodeTemplateILb1EED2Ev(ptr noundef nonnull align 8 dereferenceable(8) %ref.tmp) #16
  resume { ptr, i32 } %11

for.end:                                          ; preds = %_ZN4cvc58internal12NodeTemplateILb1EED2Ev.exit, %entry
  %d_ieval = getelementptr inbounds i8, ptr %this, i64 64
  %12 = load ptr, ptr %d_ieval, align 8
  %cmp5.not = icmp eq ptr %12, null
  br i1 %cmp5.not, label %if.end, label %if.then

if.then:                                          ; preds = %for.end
  tail call void @_ZN4cvc58internal6theory11quantifiers5ieval13InstEvaluator8resetAllEb(ptr noundef nonnull align 8 dereferenceable(1040) %12, i1 noundef zeroext true)
  br label %if.end

if.end:                                           ; preds = %if.then, %for.end
  ret void
}